target datalayout = "e-m:e-p270:32:32-p271:32:32-p272:64:64-i64:64-i128:128-f80:128-n8:16:32:64-S128"
target triple = "x86_64-pc-linux-gnu"

%struct.MemBuffer = type { i64, i64, i64, i64, ptr }
%struct.WebPDemuxer = type { %struct.MemBuffer, i32, i32, i32, i32, i32, i32, i32, i32, ptr, ptr, ptr, ptr }
%struct.Frame = type { i32, i32, i32, i32, i32, i32, i32, i32, i32, i32, [2 x %struct.ChunkData], ptr }
%struct.ChunkData = type { i64, i64 }
%struct.Chunk = type { %struct.ChunkData, ptr }

; Function Attrs: nounwind uwtable
define void @WebPDemuxDelete(ptr noundef %0) #0 {
  %2 = alloca ptr, align 8
  %3 = alloca ptr, align 8
  %4 = alloca ptr, align 8
  %5 = alloca i32, align 4
  %6 = alloca ptr, align 8
  %7 = alloca ptr, align 8
  store ptr %0, ptr %2, align 8, !tbaa !16
  call void @llvm.lifetime.start.p0(i64 8, ptr %3) #7
  call void @llvm.lifetime.start.p0(i64 8, ptr %4) #7
  %8 = load ptr, ptr %2, align 8, !tbaa !16
  %9 = icmp eq ptr %8, null
  br i1 %9, label %10, label %11

10:                                               ; preds = %1
  store i32 1, ptr %5, align 4
  br label %39

11:                                               ; preds = %1
  %12 = load ptr, ptr %2, align 8, !tbaa !16
  %13 = getelementptr inbounds nuw %struct.WebPDemuxer, ptr %12, i32 0, i32 9
  %14 = load ptr, ptr %13, align 8, !tbaa !55
  store ptr %14, ptr %4, align 8, !tbaa !40
  br label %15

15:                                               ; preds = %18, %11
  %16 = load ptr, ptr %4, align 8, !tbaa !40
  %17 = icmp ne ptr %16, null
  br i1 %17, label %18, label %24

18:                                               ; preds = %15
  call void @llvm.lifetime.start.p0(i64 8, ptr %6) #7
  %19 = load ptr, ptr %4, align 8, !tbaa !40
  store ptr %19, ptr %6, align 8, !tbaa !40
  %20 = load ptr, ptr %4, align 8, !tbaa !40
  %21 = getelementptr inbounds nuw %struct.Frame, ptr %20, i32 0, i32 11
  %22 = load ptr, ptr %21, align 8, !tbaa !56
  store ptr %22, ptr %4, align 8, !tbaa !40
  %23 = load ptr, ptr %6, align 8, !tbaa !40
  call void @WebPSafeFree(ptr noundef %23)
  call void @llvm.lifetime.end.p0(i64 8, ptr %6) #7
  br label %15, !llvm.loop !57

24:                                               ; preds = %15
  %25 = load ptr, ptr %2, align 8, !tbaa !16
  %26 = getelementptr inbounds nuw %struct.WebPDemuxer, ptr %25, i32 0, i32 11
  %27 = load ptr, ptr %26, align 8, !tbaa !58
  store ptr %27, ptr %3, align 8, !tbaa !59
  br label %28

28:                                               ; preds = %31, %24
  %29 = load ptr, ptr %3, align 8, !tbaa !59
  %30 = icmp ne ptr %29, null
  br i1 %30, label %31, label %37

31:                                               ; preds = %28
  call void @llvm.lifetime.start.p0(i64 8, ptr %7) #7
  %32 = load ptr, ptr %3, align 8, !tbaa !59
  store ptr %32, ptr %7, align 8, !tbaa !59
  %33 = load ptr, ptr %3, align 8, !tbaa !59
  %34 = getelementptr inbounds nuw %struct.Chunk, ptr %33, i32 0, i32 1
  %35 = load ptr, ptr %34, align 8, !tbaa !60
  store ptr %35, ptr %3, align 8, !tbaa !59
  %36 = load ptr, ptr %7, align 8, !tbaa !59
  call void @WebPSafeFree(ptr noundef %36)
  call void @llvm.lifetime.end.p0(i64 8, ptr %7) #7
  br label %28, !llvm.loop !63

37:                                               ; preds = %28
  %38 = load ptr, ptr %2, align 8, !tbaa !16
  call void @WebPSafeFree(ptr noundef %38)
  store i32 0, ptr %5, align 4
  br label %39

39:                                               ; preds = %37, %10
  call void @llvm.lifetime.end.p0(i64 8, ptr %4) #7
  call void @llvm.lifetime.end.p0(i64 8, ptr %3) #7
  %40 = load i32, ptr %5, align 4
  switch i32 %40, label %42 [
    i32 0, label %41
    i32 1, label %41
  ]

41:                                               ; preds = %39, %39
  ret void

42:                                               ; preds = %39
  unreachable
}