; Function Attrs: nounwind uwtable
define void @WebPDemuxDelete(ptr noundef %0) local_unnamed_addr #1 {
  %2 = icmp eq ptr %0, null
  br i1 %2, label %12, label %3

3:                                                ; preds = %1
  %4 = getelementptr inbounds nuw i8, ptr %0, i64 72
  %5 = load ptr, ptr %4, align 8, !tbaa !50
  %.not15 = icmp eq ptr %5, null
  br i1 %.not15, label %._crit_edge, label %.lr.ph

.lr.ph:                                           ; preds = %3, %.lr.ph
  %.01216 = phi ptr [ %7, %.lr.ph ], [ %5, %3 ]
  %6 = getelementptr inbounds nuw i8, ptr %.01216, i64 72
  %7 = load ptr, ptr %6, align 8, !tbaa !42
  tail call void @WebPSafeFree(ptr noundef nonnull %.01216) #13
  %.not = icmp eq ptr %7, null
  br i1 %.not, label %._crit_edge, label %.lr.ph, !llvm.loop !51

._crit_edge:                                      ; preds = %.lr.ph, %3
  %8 = getelementptr inbounds nuw i8, ptr %0, i64 88
  %9 = load ptr, ptr %8, align 8, !tbaa !52
  %.not1417 = icmp eq ptr %9, null
  br i1 %.not1417, label %._crit_edge21, label %.lr.ph20

.lr.ph20:                                         ; preds = %._crit_edge, %.lr.ph20
  %.018 = phi ptr [ %11, %.lr.ph20 ], [ %9, %._crit_edge ]
  %10 = getelementptr inbounds nuw i8, ptr %.018, i64 16
  %11 = load ptr, ptr %10, align 8, !tbaa !53
  tail call void @WebPSafeFree(ptr noundef nonnull %.018) #13
  %.not14 = icmp eq ptr %11, null
  br i1 %.not14, label %._crit_edge21, label %.lr.ph20, !llvm.loop !55

._crit_edge21:                                    ; preds = %.lr.ph20, %._crit_edge
  tail call void @WebPSafeFree(ptr noundef nonnull %0) #13
  br label %12

12:                                               ; preds = %1, %._crit_edge21
  ret void
}